target datalayout = "e-m:e-p270:32:32-p271:32:32-p272:64:64-i64:64-i128:128-f80:128-n8:16:32:64-S128"
target triple = "x86_64-pc-linux-gnu"

%class.LogTagSet = type { ptr, i64, [5 x i32], [4 x i8], %class.LogOutputList, %class.LogDecorators, ptr }
%class.LogOutputList = type <{ [6 x ptr], i32, [4 x i8] }>
%class.LogDecorators = type { i32 }
%class.G1CommittedRegionMap = type { ptr, %class.CHeapBitMap, %class.CHeapBitMap, i32, i32 }
%class.CHeapBitMap = type <{ %class.GrowableBitMap, i8, [7 x i8] }>
%class.GrowableBitMap = type { %class.BitMap }
%class.BitMap = type { ptr, i64 }

@.str.4 = private unnamed_addr constant [28 x i8] c"Reactivate regions [%u, %u)\00", align 1
@_ZN16LogTagSetMappingILN6LogTag4typeE49ELS1_52ELS1_128ELS1_0ELS1_0ELS1_0EE7_tagsetE = linkonce_odr hidden global %class.LogTagSet zeroinitializer, comdat, align 8

; Function Attrs: mustprogress nounwind uwtable
define linkonce_odr hidden noundef zeroext i1 @_ZNK13LogOutputList8is_levelEN8LogLevel4typeE(ptr noundef nonnull align 8 dereferenceable(52) %0, i32 noundef %1) #1 comdat align 2 {
  %3 = alloca ptr, align 8
  %4 = alloca i32, align 4
  store ptr %0, ptr %3, align 8
  store i32 %1, ptr %4, align 4
  %5 = load ptr, ptr %3, align 8
  %6 = getelementptr inbounds %class.LogOutputList, ptr %5, i32 0, i32 0
  %7 = load i32, ptr %4, align 4
  %8 = zext i32 %7 to i64
  %9 = getelementptr inbounds [6 x ptr], ptr %6, i64 0, i64 %8
  %10 = load volatile ptr, ptr %9, align 8
  %11 = icmp ne ptr %10, null
  ret i1 %11
}

; Function Attrs: mustprogress nounwind uwtable
define linkonce_odr hidden void @_ZN6BitMap15par_clear_rangeEmmNS_13RangeSizeHintE(ptr noundef nonnull align 8 dereferenceable(16) %0, i64 noundef %1, i64 noundef %2, i32 noundef %3) #1 comdat align 2 {
  %5 = alloca ptr, align 8
  %6 = alloca i64, align 8
  %7 = alloca i64, align 8
  %8 = alloca i32, align 4
  store ptr %0, ptr %5, align 8
  store i64 %1, ptr %6, align 8
  store i64 %2, ptr %7, align 8
  store i32 %3, ptr %8, align 4
  %9 = load ptr, ptr %5, align 8
  %10 = load i32, ptr %8, align 4
  %11 = icmp eq i32 %10, 1
  br i1 %11, label %12, label %20

12:                                               ; preds = %4
  %13 = load i64, ptr %7, align 8
  %14 = load i64, ptr %6, align 8
  %15 = sub i64 %13, %14
  %16 = icmp eq i64 %15, 1
  br i1 %16, label %17, label %20

17:                                               ; preds = %12
  %18 = load i64, ptr %6, align 8
  %19 = call noundef zeroext i1 @_ZN6BitMap10par_at_putEmb(ptr noundef nonnull align 8 dereferenceable(16) %9, i64 noundef %18, i1 noundef zeroext false)
  br label %30

20:                                               ; preds = %12, %4
  %21 = load i32, ptr %8, align 4
  %22 = icmp eq i32 %21, 2
  br i1 %22, label %23, label %26

23:                                               ; preds = %20
  %24 = load i64, ptr %6, align 8
  %25 = load i64, ptr %7, align 8
  call void @_ZN6BitMap22par_at_put_large_rangeEmmb(ptr noundef nonnull align 8 dereferenceable(16) %9, i64 noundef %24, i64 noundef %25, i1 noundef zeroext false)
  br label %29

26:                                               ; preds = %20
  %27 = load i64, ptr %6, align 8
  %28 = load i64, ptr %7, align 8
  call void @_ZN6BitMap16par_at_put_rangeEmmb(ptr noundef nonnull align 8 dereferenceable(16) %9, i64 noundef %27, i64 noundef %28, i1 noundef zeroext false)
  br label %29

29:                                               ; preds = %26, %23
  br label %30

30:                                               ; preds = %29, %17
  ret void
}

; Function Attrs: mustprogress nounwind uwtable
define linkonce_odr hidden void @_ZN6BitMap13par_set_rangeEmmNS_13RangeSizeHintE(ptr noundef nonnull align 8 dereferenceable(16) %0, i64 noundef %1, i64 noundef %2, i32 noundef %3) #1 comdat align 2 {
  %5 = alloca ptr, align 8
  %6 = alloca i64, align 8
  %7 = alloca i64, align 8
  %8 = alloca i32, align 4
  store ptr %0, ptr %5, align 8
  store i64 %1, ptr %6, align 8
  store i64 %2, ptr %7, align 8
  store i32 %3, ptr %8, align 4
  %9 = load ptr, ptr %5, align 8
  %10 = load i32, ptr %8, align 4
  %11 = icmp eq i32 %10, 1
  br i1 %11, label %12, label %20

12:                                               ; preds = %4
  %13 = load i64, ptr %7, align 8
  %14 = load i64, ptr %6, align 8
  %15 = sub i64 %13, %14
  %16 = icmp eq i64 %15, 1
  br i1 %16, label %17, label %20

17:                                               ; preds = %12
  %18 = load i64, ptr %6, align 8
  %19 = call noundef zeroext i1 @_ZN6BitMap10par_at_putEmb(ptr noundef nonnull align 8 dereferenceable(16) %9, i64 noundef %18, i1 noundef zeroext true)
  br label %30

20:                                               ; preds = %12, %4
  %21 = load i32, ptr %8, align 4
  %22 = icmp eq i32 %21, 2
  br i1 %22, label %23, label %26

23:                                               ; preds = %20
  %24 = load i64, ptr %6, align 8
  %25 = load i64, ptr %7, align 8
  call void @_ZN6BitMap22par_at_put_large_rangeEmmb(ptr noundef nonnull align 8 dereferenceable(16) %9, i64 noundef %24, i64 noundef %25, i1 noundef zeroext true)
  br label %29

26:                                               ; preds = %20
  %27 = load i64, ptr %6, align 8
  %28 = load i64, ptr %7, align 8
  call void @_ZN6BitMap16par_at_put_rangeEmmb(ptr noundef nonnull align 8 dereferenceable(16) %9, i64 noundef %27, i64 noundef %28, i1 noundef zeroext true)
  br label %29

29:                                               ; preds = %26, %23
  br label %30

30:                                               ; preds = %29, %17
  ret void
}

; Function Attrs: mustprogress nounwind uwtable
define linkonce_odr hidden noundef zeroext i1 @_ZNK9LogTagSet8is_levelEN8LogLevel4typeE(ptr noundef nonnull align 8 dereferenceable(112) %0, i32 noundef %1) #1 comdat align 2 {
  %3 = alloca ptr, align 8
  %4 = alloca i32, align 4
  store ptr %0, ptr %3, align 8
  store i32 %1, ptr %4, align 4
  %5 = load ptr, ptr %3, align 8
  %6 = getelementptr inbounds %class.LogTagSet, ptr %5, i32 0, i32 4
  %7 = load i32, ptr %4, align 4
  %8 = call noundef zeroext i1 @_ZNK13LogOutputList8is_levelEN8LogLevel4typeE(ptr noundef nonnull align 8 dereferenceable(52) %6, i32 noundef %7)
  ret i1 %8
}

; Function Attrs: mustprogress nounwind uwtable
define linkonce_odr hidden noundef nonnull align 8 dereferenceable(112) ptr @_ZN16LogTagSetMappingILN6LogTag4typeE49ELS1_52ELS1_128ELS1_0ELS1_0ELS1_0EE6tagsetEv() #1 comdat align 2 {
  ret ptr @_ZN16LogTagSetMappingILN6LogTag4typeE49ELS1_52ELS1_128ELS1_0ELS1_0ELS1_0EE7_tagsetE
}

; Function Attrs: mustprogress nounwind uwtable
define hidden void @_ZN20G1CommittedRegionMap20inactive_clear_rangeEjj(ptr noundef nonnull align 8 dereferenceable(64) %0, i32 noundef %1, i32 noundef %2) #1 align 2 {
  %4 = alloca ptr, align 8
  %5 = alloca i32, align 4
  %6 = alloca i32, align 4
  store ptr %0, ptr %4, align 8
  store i32 %1, ptr %5, align 4
  store i32 %2, ptr %6, align 4
  %7 = load ptr, ptr %4, align 8
  %8 = load ptr, ptr %7, align 8
  %9 = getelementptr inbounds ptr, ptr %8, i64 1
  %10 = load ptr, ptr %9, align 8
  call void %10(ptr noundef nonnull align 8 dereferenceable(64) %7)
  %11 = getelementptr inbounds %class.G1CommittedRegionMap, ptr %7, i32 0, i32 2
  %12 = load i32, ptr %5, align 4
  %13 = zext i32 %12 to i64
  %14 = load i32, ptr %6, align 4
  %15 = zext i32 %14 to i64
  call void @_ZN6BitMap15par_clear_rangeEmmNS_13RangeSizeHintE(ptr noundef nonnull align 8 dereferenceable(16) %11, i64 noundef %13, i64 noundef %15, i32 noundef 0)
  %16 = load i32, ptr %6, align 4
  %17 = load i32, ptr %5, align 4
  %18 = sub i32 %16, %17
  %19 = getelementptr inbounds %class.G1CommittedRegionMap, ptr %7, i32 0, i32 4
  %20 = load i32, ptr %19, align 4
  %21 = sub i32 %20, %18
  store i32 %21, ptr %19, align 4
  ret void
}

; Function Attrs: mustprogress nounwind uwtable
define hidden void @_ZN20G1CommittedRegionMap16active_set_rangeEjj(ptr noundef nonnull align 8 dereferenceable(64) %0, i32 noundef %1, i32 noundef %2) #1 align 2 {
  %4 = alloca ptr, align 8
  %5 = alloca i32, align 4
  %6 = alloca i32, align 4
  store ptr %0, ptr %4, align 8
  store i32 %1, ptr %5, align 4
  store i32 %2, ptr %6, align 4
  %7 = load ptr, ptr %4, align 8
  %8 = load ptr, ptr %7, align 8
  %9 = getelementptr inbounds ptr, ptr %8, i64 0
  %10 = load ptr, ptr %9, align 8
  call void %10(ptr noundef nonnull align 8 dereferenceable(64) %7)
  %11 = getelementptr inbounds %class.G1CommittedRegionMap, ptr %7, i32 0, i32 1
  %12 = load i32, ptr %5, align 4
  %13 = zext i32 %12 to i64
  %14 = load i32, ptr %6, align 4
  %15 = zext i32 %14 to i64
  call void @_ZN6BitMap13par_set_rangeEmmNS_13RangeSizeHintE(ptr noundef nonnull align 8 dereferenceable(16) %11, i64 noundef %13, i64 noundef %15, i32 noundef 0)
  %16 = load i32, ptr %6, align 4
  %17 = load i32, ptr %5, align 4
  %18 = sub i32 %16, %17
  %19 = getelementptr inbounds %class.G1CommittedRegionMap, ptr %7, i32 0, i32 3
  %20 = load i32, ptr %19, align 8
  %21 = add i32 %20, %18
  store i32 %21, ptr %19, align 8
  ret void
}

; Function Attrs: mustprogress nounwind uwtable
define linkonce_odr hidden noundef zeroext i1 @_ZN7LogImplILN6LogTag4typeE49ELS1_52ELS1_128ELS1_0ELS1_0ELS1_0EE8is_levelEN8LogLevel4typeE(i32 noundef %0) #1 comdat align 2 {
  %2 = alloca i32, align 4
  store i32 %0, ptr %2, align 4
  %3 = call noundef nonnull align 8 dereferenceable(112) ptr @_ZN16LogTagSetMappingILN6LogTag4typeE49ELS1_52ELS1_128ELS1_0ELS1_0ELS1_0EE6tagsetEv()
  %4 = load i32, ptr %2, align 4
  %5 = call noundef zeroext i1 @_ZNK9LogTagSet8is_levelEN8LogLevel4typeE(ptr noundef nonnull align 8 dereferenceable(112) %3, i32 noundef %4)
  ret i1 %5
}

; Function Attrs: mustprogress nounwind uwtable
define linkonce_odr hidden void @_ZNK20G1CommittedRegionMap21verify_inactive_countEjjj(ptr noundef nonnull align 8 dereferenceable(64) %0, i32 noundef %1, i32 noundef %2, i32 noundef %3) #1 comdat align 2 {
  %5 = alloca ptr, align 8
  %6 = alloca i32, align 4
  %7 = alloca i32, align 4
  %8 = alloca i32, align 4
  store ptr %0, ptr %5, align 8
  store i32 %1, ptr %6, align 4
  store i32 %2, ptr %7, align 4
  store i32 %3, ptr %8, align 4
  ret void
}

; Function Attrs: mustprogress nounwind uwtable
define linkonce_odr hidden void @_ZNK20G1CommittedRegionMap19verify_active_countEjjj(ptr noundef nonnull align 8 dereferenceable(64) %0, i32 noundef %1, i32 noundef %2, i32 noundef %3) #1 comdat align 2 {
  %5 = alloca ptr, align 8
  %6 = alloca i32, align 4
  %7 = alloca i32, align 4
  %8 = alloca i32, align 4
  store ptr %0, ptr %5, align 8
  store i32 %1, ptr %6, align 4
  store i32 %2, ptr %7, align 4
  store i32 %3, ptr %8, align 4
  ret void
}

; Function Attrs: mustprogress nounwind uwtable
define hidden void @_ZN20G1CommittedRegionMap10reactivateEjj(ptr noundef nonnull align 8 dereferenceable(64) %0, i32 noundef %1, i32 noundef %2) #1 align 2 {
  %4 = alloca ptr, align 8
  %5 = alloca i32, align 4
  %6 = alloca i32, align 4
  store ptr %0, ptr %4, align 8
  store i32 %1, ptr %5, align 4
  store i32 %2, ptr %6, align 4
  %7 = load ptr, ptr %4, align 8
  %8 = load i32, ptr %5, align 4
  %9 = load i32, ptr %6, align 4
  call void @_ZNK20G1CommittedRegionMap19verify_active_countEjjj(ptr noundef nonnull align 8 dereferenceable(64) %7, i32 noundef %8, i32 noundef %9, i32 noundef 0)
  %10 = load i32, ptr %5, align 4
  %11 = load i32, ptr %6, align 4
  %12 = load i32, ptr %6, align 4
  %13 = load i32, ptr %5, align 4
  %14 = sub i32 %12, %13
  call void @_ZNK20G1CommittedRegionMap21verify_inactive_countEjjj(ptr noundef nonnull align 8 dereferenceable(64) %7, i32 noundef %10, i32 noundef %11, i32 noundef %14)
  %15 = call noundef zeroext i1 @_ZN7LogImplILN6LogTag4typeE49ELS1_52ELS1_128ELS1_0ELS1_0ELS1_0EE8is_levelEN8LogLevel4typeE(i32 noundef 2)
  br i1 %15, label %17, label %16

16:                                               ; preds = %3
  br label %20

17:                                               ; preds = %3
  %18 = load i32, ptr %5, align 4
  %19 = load i32, ptr %6, align 4
  call void (ptr, ...) @_ZN7LogImplILN6LogTag4typeE49ELS1_52ELS1_128ELS1_0ELS1_0ELS1_0EE5writeILN8LogLevel4typeE2EEEvPKcz(ptr noundef @.str.4, i32 noundef %18, i32 noundef %19)
  br label %20

20:                                               ; preds = %17, %16
  %21 = load i32, ptr %5, align 4
  %22 = load i32, ptr %6, align 4
  call void @_ZN20G1CommittedRegionMap16active_set_rangeEjj(ptr noundef nonnull align 8 dereferenceable(64) %7, i32 noundef %21, i32 noundef %22)
  %23 = load i32, ptr %5, align 4
  %24 = load i32, ptr %6, align 4
  call void @_ZN20G1CommittedRegionMap20inactive_clear_rangeEjj(ptr noundef nonnull align 8 dereferenceable(64) %7, i32 noundef %23, i32 noundef %24)
  ret void
}